target datalayout = "e-m:e-p270:32:32-p271:32:32-p272:64:64-i64:64-i128:128-f80:128-n8:16:32:64-S128"
target triple = "x86_64-unknown-linux-gnu"

%"class.Assimp::NullLogger" = type { %"class.Assimp::Logger.base", [4 x i8] }
%"class.Assimp::Logger.base" = type <{ ptr, i32 }>

@_ZN6Assimp13DefaultLogger13s_pNullLoggerE = global %"class.Assimp::NullLogger" zeroinitializer, align 8
@_ZN6Assimp13DefaultLogger9m_pLoggerE = global ptr @_ZN6Assimp13DefaultLogger13s_pNullLoggerE, align 8

; Function Attrs: mustprogress nounwind uwtable
define noundef zeroext i1 @_ZN6Assimp13DefaultLogger12isNullLoggerEv() #0 align 2 {
entry:
  %0 = load ptr, ptr @_ZN6Assimp13DefaultLogger9m_pLoggerE, align 8
  %cmp = icmp eq ptr %0, @_ZN6Assimp13DefaultLogger13s_pNullLoggerE
  ret i1 %cmp
}

; Function Attrs: mustprogress uwtable
define void @_ZN6Assimp13DefaultLogger3setEPNS_6LoggerE(ptr noundef %logger) #6 align 2 {
entry:
  %logger.addr = alloca ptr, align 8
  store ptr %logger, ptr %logger.addr, align 8
  %0 = load ptr, ptr %logger.addr, align 8
  %cmp = icmp eq ptr null, %0
  br i1 %cmp, label %if.then, label %if.end

if.then:                                          ; preds = %entry
  store ptr @_ZN6Assimp13DefaultLogger13s_pNullLoggerE, ptr %logger.addr, align 8
  br label %if.end

if.end:                                           ; preds = %if.then, %entry
  %1 = load ptr, ptr @_ZN6Assimp13DefaultLogger9m_pLoggerE, align 8
  %cmp1 = icmp ne ptr null, %1
  br i1 %cmp1, label %land.lhs.true, label %if.end3

land.lhs.true:                                    ; preds = %if.end
  %call = call noundef zeroext i1 @_ZN6Assimp13DefaultLogger12isNullLoggerEv()
  br i1 %call, label %if.end3, label %if.then2

if.then2:                                         ; preds = %land.lhs.true
  %2 = load ptr, ptr @_ZN6Assimp13DefaultLogger9m_pLoggerE, align 8
  %isnull = icmp eq ptr %2, null
  br i1 %isnull, label %delete.end, label %delete.notnull

delete.notnull:                                   ; preds = %if.then2
  %vtable = load ptr, ptr %2, align 8
  %vfn = getelementptr inbounds ptr, ptr %vtable, i64 1
  %3 = load ptr, ptr %vfn, align 8
  call void %3(ptr noundef nonnull align 8 dereferenceable(12) %2) #5
  br label %delete.end

delete.end:                                       ; preds = %delete.notnull, %if.then2
  br label %if.end3

if.end3:                                          ; preds = %delete.end, %land.lhs.true, %if.end
  %4 = load ptr, ptr %logger.addr, align 8
  store ptr %4, ptr @_ZN6Assimp13DefaultLogger9m_pLoggerE, align 8
  ret void
}