; Function Attrs: mustprogress uwtable
define void @_ZN6Assimp13DefaultLogger3setEPNS_6LoggerE(ptr noundef %logger) local_unnamed_addr #5 align 2 {
entry:
  %0 = load ptr, ptr @_ZN6Assimp13DefaultLogger9m_pLoggerE, align 8
  %cmp1.not = icmp eq ptr %0, null
  %cmp.i = icmp eq ptr %0, @_ZN6Assimp13DefaultLogger13s_pNullLoggerE
  %or.cond = or i1 %cmp1.not, %cmp.i
  br i1 %or.cond, label %if.end3, label %delete.notnull

delete.notnull:                                   ; preds = %entry
  %vtable = load ptr, ptr %0, align 8
  %vfn = getelementptr inbounds i8, ptr %vtable, i64 8
  %1 = load ptr, ptr %vfn, align 8
  tail call void %1(ptr noundef nonnull align 8 dereferenceable(12) %0) #20
  br label %if.end3

if.end3:                                          ; preds = %delete.notnull, %entry
  %cmp = icmp eq ptr %logger, null
  %spec.store.select = select i1 %cmp, ptr @_ZN6Assimp13DefaultLogger13s_pNullLoggerE, ptr %logger
  store ptr %spec.store.select, ptr @_ZN6Assimp13DefaultLogger9m_pLoggerE, align 8
  ret void
}